target datalayout = "e-m:e-p270:32:32-p271:32:32-p272:64:64-i64:64-i128:128-f80:128-n8:16:32:64-S128"
target triple = "x86_64-unknown-linux-gnu"

; Function Attrs: mustprogress nounwind uwtable
define hidden noundef zeroext i1 @_ZN4cvc58internal4kind13isAssociativeENS1_6Kind_tE(i32 noundef %k) #0 {
entry:
  %retval = alloca i1, align 1
  %k.addr = alloca i32, align 4
  store i32 %k, ptr %k.addr, align 4
  %0 = load i32, ptr %k.addr, align 4
  switch i32 %0, label %sw.default [
    i32 19, label %sw.bb
    i32 21, label %sw.bb
    i32 37, label %sw.bb
    i32 36, label %sw.bb
  ]

sw.bb:                                            ; preds = %entry, %entry, %entry, %entry
  store i1 true, ptr %retval, align 1
  br label %return

sw.default:                                       ; preds = %entry
  store i1 false, ptr %retval, align 1
  br label %return

return:                                           ; preds = %sw.default, %sw.bb
  %1 = load i1, ptr %retval, align 1
  ret i1 %1
}